; ModuleID = '43/271.c'
source_filename = "43/271.c"
target datalayout = "e-m:e-p270:32:32-p271:32:32-p272:64:64-i64:64-f80:128-n8:16:32:64-S128"
target triple = "x86_64-pc-linux-gnu"

@.str = private unnamed_addr constant [3 x i8] c"%d\00", align 1
@.str.1 = private unnamed_addr constant [7 x i8] c"%d %d\0A\00", align 1

; Function Attrs: noinline nounwind uwtable
define dso_local i32 @sushu(i32 %0) #0 {
  %2 = alloca i32, align 4
  %3 = alloca i32, align 4
  %4 = alloca i32, align 4
  store i32 %0, i32* %2, align 4
  store i32 2, i32* %3, align 4
  store i32 0, i32* %4, align 4
  store i32 2, i32* %3, align 4
  br label %5

5:                                                ; preds = %22, %1
  %6 = load i32, i32* %3, align 4
  %7 = load i32, i32* %2, align 4
  %8 = icmp sle i32 %6, %7
  br i1 %8, label %9, label %25

9:                                                ; preds = %5
  %10 = load i32, i32* %2, align 4
  %11 = load i32, i32* %3, align 4
  %12 = srem i32 %10, %11
  %13 = icmp eq i32 %12, 0
  br i1 %13, label %14, label %15

14:                                               ; preds = %9
  br label %25

15:                                               ; preds = %9
  %16 = load i32, i32* %3, align 4
  %17 = mul nsw i32 2, %16
  %18 = load i32, i32* %2, align 4
  %19 = icmp sgt i32 %17, %18
  br i1 %19, label %20, label %21

20:                                               ; preds = %15
  store i32 1, i32* %4, align 4
  br label %21

21:                                               ; preds = %20, %15
  br label %22

22:                                               ; preds = %21
  %23 = load i32, i32* %3, align 4
  %24 = add nsw i32 %23, 1
  store i32 %24, i32* %3, align 4
  br label %5

25:                                               ; preds = %14, %5
  %26 = load i32, i32* %4, align 4
  ret i32 %26
}

; Function Attrs: noinline nounwind uwtable
define dso_local void @main() #0 {
  %1 = alloca i32, align 4
  %2 = alloca i32, align 4
  %3 = call i32 (i8*, ...) @__isoc99_scanf(i8* getelementptr inbounds ([3 x i8], [3 x i8]* @.str, i64 0, i64 0), i32* %1)
  store i32 1, i32* %2, align 4
  br label %4

4:                                                ; preds = %37, %0
  %5 = load i32, i32* %2, align 4
  %6 = mul nsw i32 4, %5
  %7 = add nsw i32 %6, 2
  %8 = load i32, i32* %1, align 4
  %9 = icmp sle i32 %7, %8
  br i1 %9, label %10, label %40

10:                                               ; preds = %4
  %11 = load i32, i32* %2, align 4
  %12 = mul nsw i32 2, %11
  %13 = add nsw i32 %12, 1
  %14 = call i32 @sushu(i32 %13)
  %15 = icmp ne i32 %14, 0
  br i1 %15, label %17, label %16

16:                                               ; preds = %10
  br label %37

17:                                               ; preds = %10
  %18 = load i32, i32* %1, align 4
  %19 = sub nsw i32 %18, 1
  %20 = load i32, i32* %2, align 4
  %21 = mul nsw i32 2, %20
  %22 = sub nsw i32 %19, %21
  %23 = call i32 @sushu(i32 %22)
  %24 = icmp ne i32 %23, 0
  br i1 %24, label %25, label %35

25:                                               ; preds = %17
  %26 = load i32, i32* %2, align 4
  %27 = mul nsw i32 2, %26
  %28 = add nsw i32 %27, 1
  %29 = load i32, i32* %1, align 4
  %30 = sub nsw i32 %29, 1
  %31 = load i32, i32* %2, align 4
  %32 = mul nsw i32 2, %31
  %33 = sub nsw i32 %30, %32
  %34 = call i32 (i8*, ...) @printf(i8* getelementptr inbounds ([7 x i8], [7 x i8]* @.str.1, i64 0, i64 0), i32 %28, i32 %33)
  br label %35

35:                                               ; preds = %25, %17
  br label %36

36:                                               ; preds = %35
  br label %37

37:                                               ; preds = %36, %16
  %38 = load i32, i32* %2, align 4
  %39 = add nsw i32 %38, 1
  store i32 %39, i32* %2, align 4
  br label %4

40:                                               ; preds = %4
  ret void
}

declare dso_local i32 @__isoc99_scanf(i8*, ...) #1

declare dso_local i32 @printf(i8*, ...) #1


!llvm.module.flags = !{!0}
!llvm.ident = !{!1}

!0 = !{i32 1, !"wchar_size", i32 4}
!1 = !{!"clang version 10.0.0-4ubuntu1 "}
